target datalayout = "e-m:e-p270:32:32-p271:32:32-p272:64:64-i64:64-i128:128-f80:128-n8:16:32:64-S128"
target triple = "x86_64-pc-linux-gnu"

; Function Attrs: nounwind uwtable
define void @stbi__create_png_alpha_expand8(ptr noundef %0, ptr noundef %1, i32 noundef %2, i32 noundef %3) #0 {
  %5 = alloca ptr, align 8
  %6 = alloca ptr, align 8
  %7 = alloca i32, align 4
  %8 = alloca i32, align 4
  %9 = alloca i32, align 4
  store ptr %0, ptr %5, align 8, !tbaa !7
  store ptr %1, ptr %6, align 8, !tbaa !7
  store i32 %2, ptr %7, align 4, !tbaa !9
  store i32 %3, ptr %8, align 4, !tbaa !9
  call void @llvm.lifetime.start.p0(i64 4, ptr %9) #13
  %10 = load i32, ptr %8, align 4, !tbaa !9
  %11 = icmp eq i32 %10, 1
  br i1 %11, label %12, label %40

12:                                               ; preds = %4
  %13 = load i32, ptr %7, align 4, !tbaa !9
  %14 = sub i32 %13, 1
  store i32 %14, ptr %9, align 4, !tbaa !9
  br label %15

15:                                               ; preds = %36, %12
  %16 = load i32, ptr %9, align 4, !tbaa !9
  %17 = icmp sge i32 %16, 0
  br i1 %17, label %18, label %39

18:                                               ; preds = %15
  %19 = load ptr, ptr %5, align 8, !tbaa !7
  %20 = load i32, ptr %9, align 4, !tbaa !9
  %21 = mul nsw i32 %20, 2
  %22 = add nsw i32 %21, 1
  %23 = sext i32 %22 to i64
  %24 = getelementptr inbounds i8, ptr %19, i64 %23
  store i8 -1, ptr %24, align 1, !tbaa !23
  %25 = load ptr, ptr %6, align 8, !tbaa !7
  %26 = load i32, ptr %9, align 4, !tbaa !9
  %27 = sext i32 %26 to i64
  %28 = getelementptr inbounds i8, ptr %25, i64 %27
  %29 = load i8, ptr %28, align 1, !tbaa !23
  %30 = load ptr, ptr %5, align 8, !tbaa !7
  %31 = load i32, ptr %9, align 4, !tbaa !9
  %32 = mul nsw i32 %31, 2
  %33 = add nsw i32 %32, 0
  %34 = sext i32 %33 to i64
  %35 = getelementptr inbounds i8, ptr %30, i64 %34
  store i8 %29, ptr %35, align 1, !tbaa !23
  br label %36

36:                                               ; preds = %18
  %37 = load i32, ptr %9, align 4, !tbaa !9
  %38 = add nsw i32 %37, -1
  store i32 %38, ptr %9, align 4, !tbaa !9
  br label %15, !llvm.loop !309

39:                                               ; preds = %15
  br label %96

40:                                               ; preds = %4
  %41 = load i32, ptr %7, align 4, !tbaa !9
  %42 = sub i32 %41, 1
  store i32 %42, ptr %9, align 4, !tbaa !9
  br label %43

43:                                               ; preds = %92, %40
  %44 = load i32, ptr %9, align 4, !tbaa !9
  %45 = icmp sge i32 %44, 0
  br i1 %45, label %46, label %95

46:                                               ; preds = %43
  %47 = load ptr, ptr %5, align 8, !tbaa !7
  %48 = load i32, ptr %9, align 4, !tbaa !9
  %49 = mul nsw i32 %48, 4
  %50 = add nsw i32 %49, 3
  %51 = sext i32 %50 to i64
  %52 = getelementptr inbounds i8, ptr %47, i64 %51
  store i8 -1, ptr %52, align 1, !tbaa !23
  %53 = load ptr, ptr %6, align 8, !tbaa !7
  %54 = load i32, ptr %9, align 4, !tbaa !9
  %55 = mul nsw i32 %54, 3
  %56 = add nsw i32 %55, 2
  %57 = sext i32 %56 to i64
  %58 = getelementptr inbounds i8, ptr %53, i64 %57
  %59 = load i8, ptr %58, align 1, !tbaa !23
  %60 = load ptr, ptr %5, align 8, !tbaa !7
  %61 = load i32, ptr %9, align 4, !tbaa !9
  %62 = mul nsw i32 %61, 4
  %63 = add nsw i32 %62, 2
  %64 = sext i32 %63 to i64
  %65 = getelementptr inbounds i8, ptr %60, i64 %64
  store i8 %59, ptr %65, align 1, !tbaa !23
  %66 = load ptr, ptr %6, align 8, !tbaa !7
  %67 = load i32, ptr %9, align 4, !tbaa !9
  %68 = mul nsw i32 %67, 3
  %69 = add nsw i32 %68, 1
  %70 = sext i32 %69 to i64
  %71 = getelementptr inbounds i8, ptr %66, i64 %70
  %72 = load i8, ptr %71, align 1, !tbaa !23
  %73 = load ptr, ptr %5, align 8, !tbaa !7
  %74 = load i32, ptr %9, align 4, !tbaa !9
  %75 = mul nsw i32 %74, 4
  %76 = add nsw i32 %75, 1
  %77 = sext i32 %76 to i64
  %78 = getelementptr inbounds i8, ptr %73, i64 %77
  store i8 %72, ptr %78, align 1, !tbaa !23
  %79 = load ptr, ptr %6, align 8, !tbaa !7
  %80 = load i32, ptr %9, align 4, !tbaa !9
  %81 = mul nsw i32 %80, 3
  %82 = add nsw i32 %81, 0
  %83 = sext i32 %82 to i64
  %84 = getelementptr inbounds i8, ptr %79, i64 %83
  %85 = load i8, ptr %84, align 1, !tbaa !23
  %86 = load ptr, ptr %5, align 8, !tbaa !7
  %87 = load i32, ptr %9, align 4, !tbaa !9
  %88 = mul nsw i32 %87, 4
  %89 = add nsw i32 %88, 0
  %90 = sext i32 %89 to i64
  %91 = getelementptr inbounds i8, ptr %86, i64 %90
  store i8 %85, ptr %91, align 1, !tbaa !23
  br label %92

92:                                               ; preds = %46
  %93 = load i32, ptr %9, align 4, !tbaa !9
  %94 = add nsw i32 %93, -1
  store i32 %94, ptr %9, align 4, !tbaa !9
  br label %43, !llvm.loop !310

95:                                               ; preds = %43
  br label %96

96:                                               ; preds = %95, %39
  call void @llvm.lifetime.end.p0(i64 4, ptr %9) #13
  ret void
}