; Function Attrs: nofree norecurse nosync nounwind memory(argmem: readwrite) uwtable
define void @stbi__create_png_alpha_expand8(ptr noundef writeonly captures(none) %0, ptr noundef readonly captures(none) %1, i32 noundef %2, i32 noundef %3) local_unnamed_addr #18 {
  %5 = icmp eq i32 %3, 1
  %.030 = add i32 %2, -1
  %6 = icmp sgt i32 %.030, -1
  br i1 %5, label %.preheader, label %.preheader26

.preheader26:                                     ; preds = %4
  br i1 %6, label %.lr.ph.preheader, label %.loopexit

.lr.ph.preheader:                                 ; preds = %.preheader26
  %7 = zext nneg i32 %.030 to i64
  br label %.lr.ph

.preheader:                                       ; preds = %4
  br i1 %6, label %.lr.ph32.preheader, label %.loopexit

.lr.ph32.preheader:                               ; preds = %.preheader
  %8 = zext nneg i32 %.030 to i64
  br label %.lr.ph32

.lr.ph32:                                         ; preds = %.lr.ph32.preheader, %.lr.ph32
  %indvars.iv35 = phi i64 [ %8, %.lr.ph32.preheader ], [ %indvars.iv.next36, %.lr.ph32 ]
  %9 = shl nuw nsw i64 %indvars.iv35, 1
  %10 = or disjoint i64 %9, 1
  %11 = getelementptr inbounds nuw i8, ptr %0, i64 %10
  store i8 -1, ptr %11, align 1, !tbaa !21
  %12 = getelementptr inbounds nuw i8, ptr %1, i64 %indvars.iv35
  %13 = load i8, ptr %12, align 1, !tbaa !21
  %14 = getelementptr inbounds nuw i8, ptr %0, i64 %9
  store i8 %13, ptr %14, align 1, !tbaa !21
  %indvars.iv.next36 = add nsw i64 %indvars.iv35, -1
  %.not39 = icmp eq i64 %indvars.iv35, 0
  br i1 %.not39, label %.loopexit, label %.lr.ph32, !llvm.loop !294

.lr.ph:                                           ; preds = %.lr.ph.preheader, %.lr.ph
  %indvars.iv = phi i64 [ %7, %.lr.ph.preheader ], [ %indvars.iv.next, %.lr.ph ]
  %15 = shl nsw i64 %indvars.iv, 2
  %16 = or disjoint i64 %15, 3
  %17 = getelementptr inbounds nuw i8, ptr %0, i64 %16
  store i8 -1, ptr %17, align 1, !tbaa !21
  %18 = mul nuw nsw i64 %indvars.iv, 3
  %19 = getelementptr inbounds nuw i8, ptr %1, i64 %18
  %20 = getelementptr inbounds nuw i8, ptr %19, i64 2
  %21 = load i8, ptr %20, align 1, !tbaa !21
  %22 = or disjoint i64 %15, 2
  %23 = getelementptr inbounds nuw i8, ptr %0, i64 %22
  store i8 %21, ptr %23, align 1, !tbaa !21
  %24 = getelementptr inbounds nuw i8, ptr %19, i64 1
  %25 = load i8, ptr %24, align 1, !tbaa !21
  %26 = or disjoint i64 %15, 1
  %27 = getelementptr inbounds nuw i8, ptr %0, i64 %26
  store i8 %25, ptr %27, align 1, !tbaa !21
  %28 = load i8, ptr %19, align 1, !tbaa !21
  %29 = getelementptr inbounds nuw i8, ptr %0, i64 %15
  store i8 %28, ptr %29, align 1, !tbaa !21
  %indvars.iv.next = add nsw i64 %indvars.iv, -1
  %.not = icmp eq i64 %indvars.iv, 0
  br i1 %.not, label %.loopexit, label %.lr.ph, !llvm.loop !295

.loopexit:                                        ; preds = %.lr.ph, %.lr.ph32, %.preheader26, %.preheader
  ret void
}